target datalayout = "e-m:e-p270:32:32-p271:32:32-p272:64:64-i64:64-i128:128-f80:128-n8:16:32:64-S128"
target triple = "x86_64-pc-linux-gnu"

%struct.AVFilterContext = type { ptr, ptr, ptr, ptr, ptr, i32, ptr, ptr, i32, ptr, ptr, i32, i32, ptr, ptr, ptr, ptr, i32, ptr, i32, i32 }
%struct.FFTFILTContext = type { ptr, i32, i32, i32, i32, [4 x i32], [4 x i32], [32 x [4 x ptr]], [32 x [4 x ptr]], [32 x [4 x ptr]], [32 x [4 x ptr]], ptr, ptr, ptr, ptr, [4 x i32], [4 x i32], [4 x i64], [4 x i64], [4 x i64], [4 x i64], [4 x ptr], [4 x ptr], [4 x ptr], [4 x ptr], [4 x i32], [4 x ptr], [4 x ptr], [4 x ptr], ptr, ptr }

; Function Attrs: cold nounwind optsize uwtable
define internal void @uninit(ptr noundef %0) #0 {
  %2 = alloca ptr, align 8
  %3 = alloca ptr, align 8
  %4 = alloca i32, align 4
  %5 = alloca i32, align 4
  %6 = alloca i32, align 4
  store ptr %0, ptr %2, align 8, !tbaa !4
  call void @llvm.lifetime.start.p0(i64 8, ptr %3) #10
  %7 = load ptr, ptr %2, align 8, !tbaa !4
  %8 = getelementptr inbounds nuw %struct.AVFilterContext, ptr %7, i32 0, i32 9
  %9 = load ptr, ptr %8, align 8, !tbaa !9
  store ptr %9, ptr %3, align 8, !tbaa !22
  call void @llvm.lifetime.start.p0(i64 4, ptr %4) #10
  store i32 0, ptr %4, align 4, !tbaa !24
  br label %10

10:                                               ; preds = %90, %1
  %11 = load i32, ptr %4, align 4, !tbaa !24
  %12 = icmp slt i32 %11, 4
  br i1 %12, label %14, label %13

13:                                               ; preds = %10
  store i32 2, ptr %5, align 4
  call void @llvm.lifetime.end.p0(i64 4, ptr %4) #10
  br label %93

14:                                               ; preds = %10
  %15 = load ptr, ptr %3, align 8, !tbaa !22
  %16 = getelementptr inbounds nuw %struct.FFTFILTContext, ptr %15, i32 0, i32 21
  %17 = load i32, ptr %4, align 4, !tbaa !24
  %18 = sext i32 %17 to i64
  %19 = getelementptr inbounds [4 x ptr], ptr %16, i64 0, i64 %18
  call void @av_freep(ptr noundef %19)
  %20 = load ptr, ptr %3, align 8, !tbaa !22
  %21 = getelementptr inbounds nuw %struct.FFTFILTContext, ptr %20, i32 0, i32 22
  %22 = load i32, ptr %4, align 4, !tbaa !24
  %23 = sext i32 %22 to i64
  %24 = getelementptr inbounds [4 x ptr], ptr %21, i64 0, i64 %23
  call void @av_freep(ptr noundef %24)
  %25 = load ptr, ptr %3, align 8, !tbaa !22
  %26 = getelementptr inbounds nuw %struct.FFTFILTContext, ptr %25, i32 0, i32 23
  %27 = load i32, ptr %4, align 4, !tbaa !24
  %28 = sext i32 %27 to i64
  %29 = getelementptr inbounds [4 x ptr], ptr %26, i64 0, i64 %28
  call void @av_freep(ptr noundef %29)
  %30 = load ptr, ptr %3, align 8, !tbaa !22
  %31 = getelementptr inbounds nuw %struct.FFTFILTContext, ptr %30, i32 0, i32 24
  %32 = load i32, ptr %4, align 4, !tbaa !24
  %33 = sext i32 %32 to i64
  %34 = getelementptr inbounds [4 x ptr], ptr %31, i64 0, i64 %33
  call void @av_freep(ptr noundef %34)
  %35 = load ptr, ptr %3, align 8, !tbaa !22
  %36 = getelementptr inbounds nuw %struct.FFTFILTContext, ptr %35, i32 0, i32 27
  %37 = load i32, ptr %4, align 4, !tbaa !24
  %38 = sext i32 %37 to i64
  %39 = getelementptr inbounds [4 x ptr], ptr %36, i64 0, i64 %38
  %40 = load ptr, ptr %39, align 8, !tbaa !29
  call void @av_expr_free(ptr noundef %40)
  %41 = load ptr, ptr %3, align 8, !tbaa !22
  %42 = getelementptr inbounds nuw %struct.FFTFILTContext, ptr %41, i32 0, i32 28
  %43 = load i32, ptr %4, align 4, !tbaa !24
  %44 = sext i32 %43 to i64
  %45 = getelementptr inbounds [4 x ptr], ptr %42, i64 0, i64 %44
  call void @av_freep(ptr noundef %45)
  call void @llvm.lifetime.start.p0(i64 4, ptr %6) #10
  store i32 0, ptr %6, align 4, !tbaa !24
  br label %46

46:                                               ; preds = %86, %14
  %47 = load i32, ptr %6, align 4, !tbaa !24
  %48 = load ptr, ptr %3, align 8, !tbaa !22
  %49 = getelementptr inbounds nuw %struct.FFTFILTContext, ptr %48, i32 0, i32 4
  %50 = load i32, ptr %49, align 4, !tbaa !31
  %51 = icmp slt i32 %47, %50
  br i1 %51, label %53, label %52

52:                                               ; preds = %46
  store i32 5, ptr %5, align 4
  call void @llvm.lifetime.end.p0(i64 4, ptr %6) #10
  br label %89

53:                                               ; preds = %46
  %54 = load ptr, ptr %3, align 8, !tbaa !22
  %55 = getelementptr inbounds nuw %struct.FFTFILTContext, ptr %54, i32 0, i32 7
  %56 = load i32, ptr %6, align 4, !tbaa !24
  %57 = sext i32 %56 to i64
  %58 = getelementptr inbounds [32 x [4 x ptr]], ptr %55, i64 0, i64 %57
  %59 = load i32, ptr %4, align 4, !tbaa !24
  %60 = sext i32 %59 to i64
  %61 = getelementptr inbounds [4 x ptr], ptr %58, i64 0, i64 %60
  call void @av_tx_uninit(ptr noundef %61)
  %62 = load ptr, ptr %3, align 8, !tbaa !22
  %63 = getelementptr inbounds nuw %struct.FFTFILTContext, ptr %62, i32 0, i32 9
  %64 = load i32, ptr %6, align 4, !tbaa !24
  %65 = sext i32 %64 to i64
  %66 = getelementptr inbounds [32 x [4 x ptr]], ptr %63, i64 0, i64 %65
  %67 = load i32, ptr %4, align 4, !tbaa !24
  %68 = sext i32 %67 to i64
  %69 = getelementptr inbounds [4 x ptr], ptr %66, i64 0, i64 %68
  call void @av_tx_uninit(ptr noundef %69)
  %70 = load ptr, ptr %3, align 8, !tbaa !22
  %71 = getelementptr inbounds nuw %struct.FFTFILTContext, ptr %70, i32 0, i32 8
  %72 = load i32, ptr %6, align 4, !tbaa !24
  %73 = sext i32 %72 to i64
  %74 = getelementptr inbounds [32 x [4 x ptr]], ptr %71, i64 0, i64 %73
  %75 = load i32, ptr %4, align 4, !tbaa !24
  %76 = sext i32 %75 to i64
  %77 = getelementptr inbounds [4 x ptr], ptr %74, i64 0, i64 %76
  call void @av_tx_uninit(ptr noundef %77)
  %78 = load ptr, ptr %3, align 8, !tbaa !22
  %79 = getelementptr inbounds nuw %struct.FFTFILTContext, ptr %78, i32 0, i32 10
  %80 = load i32, ptr %6, align 4, !tbaa !24
  %81 = sext i32 %80 to i64
  %82 = getelementptr inbounds [32 x [4 x ptr]], ptr %79, i64 0, i64 %81
  %83 = load i32, ptr %4, align 4, !tbaa !24
  %84 = sext i32 %83 to i64
  %85 = getelementptr inbounds [4 x ptr], ptr %82, i64 0, i64 %84
  call void @av_tx_uninit(ptr noundef %85)
  br label %86

86:                                               ; preds = %53
  %87 = load i32, ptr %6, align 4, !tbaa !24
  %88 = add nsw i32 %87, 1
  store i32 %88, ptr %6, align 4, !tbaa !24
  br label %46, !llvm.loop !33

89:                                               ; preds = %52
  br label %90

90:                                               ; preds = %89
  %91 = load i32, ptr %4, align 4, !tbaa !24
  %92 = add nsw i32 %91, 1
  store i32 %92, ptr %4, align 4, !tbaa !24
  br label %10, !llvm.loop !34

93:                                               ; preds = %13
  call void @llvm.lifetime.end.p0(i64 8, ptr %3) #10
  ret void
}