; Function Attrs: cold nounwind optsize uwtable
define internal void @uninit(ptr noundef readonly captures(none) %0) #0 {
  %2 = getelementptr inbounds nuw i8, ptr %0, i64 72
  %3 = load ptr, ptr %2, align 8, !tbaa !4
  %4 = getelementptr inbounds nuw i8, ptr %3, i64 4344
  %5 = getelementptr inbounds nuw i8, ptr %3, i64 4376
  %6 = getelementptr inbounds nuw i8, ptr %3, i64 4408
  %7 = getelementptr inbounds nuw i8, ptr %3, i64 4440
  %8 = getelementptr inbounds nuw i8, ptr %3, i64 4520
  %9 = getelementptr inbounds nuw i8, ptr %3, i64 4552
  %10 = getelementptr inbounds nuw i8, ptr %3, i64 20
  %11 = getelementptr inbounds nuw i8, ptr %3, i64 56
  %12 = getelementptr inbounds nuw i8, ptr %3, i64 2104
  %13 = getelementptr inbounds nuw i8, ptr %3, i64 1080
  %14 = getelementptr inbounds nuw i8, ptr %3, i64 3128
  br label %16

15:                                               ; preds = %._crit_edge
  ret void

16:                                               ; preds = %1, %._crit_edge
  %indvars.iv33 = phi i64 [ 0, %1 ], [ %indvars.iv.next34, %._crit_edge ]
  %17 = getelementptr inbounds nuw [4 x ptr], ptr %4, i64 0, i64 %indvars.iv33
  tail call void @av_freep(ptr noundef nonnull %17) #10
  %18 = getelementptr inbounds nuw [4 x ptr], ptr %5, i64 0, i64 %indvars.iv33
  tail call void @av_freep(ptr noundef nonnull %18) #10
  %19 = getelementptr inbounds nuw [4 x ptr], ptr %6, i64 0, i64 %indvars.iv33
  tail call void @av_freep(ptr noundef nonnull %19) #10
  %20 = getelementptr inbounds nuw [4 x ptr], ptr %7, i64 0, i64 %indvars.iv33
  tail call void @av_freep(ptr noundef nonnull %20) #10
  %21 = getelementptr inbounds nuw [4 x ptr], ptr %8, i64 0, i64 %indvars.iv33
  %22 = load ptr, ptr %21, align 8, !tbaa !25
  tail call void @av_expr_free(ptr noundef %22) #10
  %23 = getelementptr inbounds nuw [4 x ptr], ptr %9, i64 0, i64 %indvars.iv33
  tail call void @av_freep(ptr noundef nonnull %23) #10
  %24 = load i32, ptr %10, align 4, !tbaa !27
  %25 = icmp sgt i32 %24, 0
  br i1 %25, label %.lr.ph, label %._crit_edge

._crit_edge:                                      ; preds = %.lr.ph, %16
  %indvars.iv.next34 = add nuw nsw i64 %indvars.iv33, 1
  %exitcond.not = icmp eq i64 %indvars.iv.next34, 4
  br i1 %exitcond.not, label %15, label %16, !llvm.loop !29

.lr.ph:                                           ; preds = %16, %.lr.ph
  %indvars.iv = phi i64 [ %indvars.iv.next, %.lr.ph ], [ 0, %16 ]
  %26 = getelementptr inbounds nuw [32 x [4 x ptr]], ptr %11, i64 0, i64 %indvars.iv, i64 %indvars.iv33
  tail call void @av_tx_uninit(ptr noundef nonnull %26) #10
  %27 = getelementptr inbounds nuw [32 x [4 x ptr]], ptr %12, i64 0, i64 %indvars.iv, i64 %indvars.iv33
  tail call void @av_tx_uninit(ptr noundef nonnull %27) #10
  %28 = getelementptr inbounds nuw [32 x [4 x ptr]], ptr %13, i64 0, i64 %indvars.iv, i64 %indvars.iv33
  tail call void @av_tx_uninit(ptr noundef nonnull %28) #10
  %29 = getelementptr inbounds nuw [32 x [4 x ptr]], ptr %14, i64 0, i64 %indvars.iv, i64 %indvars.iv33
  tail call void @av_tx_uninit(ptr noundef nonnull %29) #10
  %indvars.iv.next = add nuw nsw i64 %indvars.iv, 1
  %30 = load i32, ptr %10, align 4, !tbaa !27
  %31 = sext i32 %30 to i64
  %32 = icmp slt i64 %indvars.iv.next, %31
  br i1 %32, label %.lr.ph, label %._crit_edge, !llvm.loop !30
}